; ModuleID = '46/1313.c'
source_filename = "46/1313.c"
target datalayout = "e-m:e-p270:32:32-p271:32:32-p272:64:64-i64:64-f80:128-n8:16:32:64-S128"
target triple = "x86_64-pc-linux-gnu"

@.str = private unnamed_addr constant [6 x i8] c"%d %d\00", align 1
@.str.1 = private unnamed_addr constant [3 x i8] c"%d\00", align 1
@.str.2 = private unnamed_addr constant [4 x i8] c"%d\0A\00", align 1

; Function Attrs: noinline nounwind uwtable
define dso_local i32 @main() #0 {
  %1 = alloca i32, align 4
  %2 = alloca [100 x [100 x i32]], align 16
  %3 = alloca i32, align 4
  %4 = alloca i32, align 4
  %5 = alloca i32, align 4
  %6 = alloca i32, align 4
  %7 = alloca i32, align 4
  store i32 0, i32* %1, align 4
  %8 = call i32 (i8*, ...) @__isoc99_scanf(i8* getelementptr inbounds ([6 x i8], [6 x i8]* @.str, i64 0, i64 0), i32* %3, i32* %4)
  store i32 0, i32* %5, align 4
  br label %9

9:                                                ; preds = %30, %0
  %10 = load i32, i32* %5, align 4
  %11 = load i32, i32* %3, align 4
  %12 = icmp slt i32 %10, %11
  br i1 %12, label %13, label %33

13:                                               ; preds = %9
  store i32 0, i32* %6, align 4
  br label %14

14:                                               ; preds = %26, %13
  %15 = load i32, i32* %6, align 4
  %16 = load i32, i32* %4, align 4
  %17 = icmp slt i32 %15, %16
  br i1 %17, label %18, label %29

18:                                               ; preds = %14
  %19 = load i32, i32* %5, align 4
  %20 = sext i32 %19 to i64
  %21 = getelementptr inbounds [100 x [100 x i32]], [100 x [100 x i32]]* %2, i64 0, i64 %20
  %22 = load i32, i32* %6, align 4
  %23 = sext i32 %22 to i64
  %24 = getelementptr inbounds [100 x i32], [100 x i32]* %21, i64 0, i64 %23
  %25 = call i32 (i8*, ...) @__isoc99_scanf(i8* getelementptr inbounds ([3 x i8], [3 x i8]* @.str.1, i64 0, i64 0), i32* %24)
  br label %26

26:                                               ; preds = %18
  %27 = load i32, i32* %6, align 4
  %28 = add nsw i32 %27, 1
  store i32 %28, i32* %6, align 4
  br label %14

29:                                               ; preds = %14
  br label %30

30:                                               ; preds = %29
  %31 = load i32, i32* %5, align 4
  %32 = add nsw i32 %31, 1
  store i32 %32, i32* %5, align 4
  br label %9

33:                                               ; preds = %9
  store i32 0, i32* %7, align 4
  br label %34

34:                                               ; preds = %140, %33
  %35 = load i32, i32* %7, align 4
  %36 = mul nsw i32 2, %35
  %37 = load i32, i32* %3, align 4
  %38 = icmp slt i32 %36, %37
  br i1 %38, label %39, label %44

39:                                               ; preds = %34
  %40 = load i32, i32* %7, align 4
  %41 = mul nsw i32 2, %40
  %42 = load i32, i32* %4, align 4
  %43 = icmp slt i32 %41, %42
  br label %44

44:                                               ; preds = %39, %34
  %45 = phi i1 [ false, %34 ], [ %43, %39 ]
  br i1 %45, label %46, label %143

46:                                               ; preds = %44
  %47 = load i32, i32* %7, align 4
  store i32 %47, i32* %5, align 4
  %48 = load i32, i32* %7, align 4
  store i32 %48, i32* %6, align 4
  br label %49

49:                                               ; preds = %65, %46
  %50 = load i32, i32* %6, align 4
  %51 = load i32, i32* %4, align 4
  %52 = load i32, i32* %7, align 4
  %53 = sub nsw i32 %51, %52
  %54 = sub nsw i32 %53, 1
  %55 = icmp slt i32 %50, %54
  br i1 %55, label %56, label %68

56:                                               ; preds = %49
  %57 = load i32, i32* %5, align 4
  %58 = sext i32 %57 to i64
  %59 = getelementptr inbounds [100 x [100 x i32]], [100 x [100 x i32]]* %2, i64 0, i64 %58
  %60 = load i32, i32* %6, align 4
  %61 = sext i32 %60 to i64
  %62 = getelementptr inbounds [100 x i32], [100 x i32]* %59, i64 0, i64 %61
  %63 = load i32, i32* %62, align 4
  %64 = call i32 (i8*, ...) @printf(i8* getelementptr inbounds ([4 x i8], [4 x i8]* @.str.2, i64 0, i64 0), i32 %63)
  br label %65

65:                                               ; preds = %56
  %66 = load i32, i32* %6, align 4
  %67 = add nsw i32 %66, 1
  store i32 %67, i32* %6, align 4
  br label %49

68:                                               ; preds = %49
  br label %69

69:                                               ; preds = %85, %68
  %70 = load i32, i32* %5, align 4
  %71 = load i32, i32* %3, align 4
  %72 = load i32, i32* %7, align 4
  %73 = sub nsw i32 %71, %72
  %74 = sub nsw i32 %73, 1
  %75 = icmp slt i32 %70, %74
  br i1 %75, label %76, label %88

76:                                               ; preds = %69
  %77 = load i32, i32* %5, align 4
  %78 = sext i32 %77 to i64
  %79 = getelementptr inbounds [100 x [100 x i32]], [100 x [100 x i32]]* %2, i64 0, i64 %78
  %80 = load i32, i32* %6, align 4
  %81 = sext i32 %80 to i64
  %82 = getelementptr inbounds [100 x i32], [100 x i32]* %79, i64 0, i64 %81
  %83 = load i32, i32* %82, align 4
  %84 = call i32 (i8*, ...) @printf(i8* getelementptr inbounds ([4 x i8], [4 x i8]* @.str.2, i64 0, i64 0), i32 %83)
  br label %85

85:                                               ; preds = %76
  %86 = load i32, i32* %5, align 4
  %87 = add nsw i32 %86, 1
  store i32 %87, i32* %5, align 4
  br label %69

88:                                               ; preds = %69
  %89 = load i32, i32* %5, align 4
  %90 = load i32, i32* %7, align 4
  %91 = icmp eq i32 %89, %90
  br i1 %91, label %96, label %92

92:                                               ; preds = %88
  %93 = load i32, i32* %6, align 4
  %94 = load i32, i32* %7, align 4
  %95 = icmp eq i32 %93, %94
  br i1 %95, label %96, label %105

96:                                               ; preds = %92, %88
  %97 = load i32, i32* %5, align 4
  %98 = sext i32 %97 to i64
  %99 = getelementptr inbounds [100 x [100 x i32]], [100 x [100 x i32]]* %2, i64 0, i64 %98
  %100 = load i32, i32* %6, align 4
  %101 = sext i32 %100 to i64
  %102 = getelementptr inbounds [100 x i32], [100 x i32]* %99, i64 0, i64 %101
  %103 = load i32, i32* %102, align 4
  %104 = call i32 (i8*, ...) @printf(i8* getelementptr inbounds ([4 x i8], [4 x i8]* @.str.2, i64 0, i64 0), i32 %103)
  br label %143

105:                                              ; preds = %92
  br label %106

106:                                              ; preds = %119, %105
  %107 = load i32, i32* %6, align 4
  %108 = load i32, i32* %7, align 4
  %109 = icmp sgt i32 %107, %108
  br i1 %109, label %110, label %122

110:                                              ; preds = %106
  %111 = load i32, i32* %5, align 4
  %112 = sext i32 %111 to i64
  %113 = getelementptr inbounds [100 x [100 x i32]], [100 x [100 x i32]]* %2, i64 0, i64 %112
  %114 = load i32, i32* %6, align 4
  %115 = sext i32 %114 to i64
  %116 = getelementptr inbounds [100 x i32], [100 x i32]* %113, i64 0, i64 %115
  %117 = load i32, i32* %116, align 4
  %118 = call i32 (i8*, ...) @printf(i8* getelementptr inbounds ([4 x i8], [4 x i8]* @.str.2, i64 0, i64 0), i32 %117)
  br label %119

119:                                              ; preds = %110
  %120 = load i32, i32* %6, align 4
  %121 = add nsw i32 %120, -1
  store i32 %121, i32* %6, align 4
  br label %106

122:                                              ; preds = %106
  br label %123

123:                                              ; preds = %136, %122
  %124 = load i32, i32* %5, align 4
  %125 = load i32, i32* %7, align 4
  %126 = icmp sgt i32 %124, %125
  br i1 %126, label %127, label %139

127:                                              ; preds = %123
  %128 = load i32, i32* %5, align 4
  %129 = sext i32 %128 to i64
  %130 = getelementptr inbounds [100 x [100 x i32]], [100 x [100 x i32]]* %2, i64 0, i64 %129
  %131 = load i32, i32* %6, align 4
  %132 = sext i32 %131 to i64
  %133 = getelementptr inbounds [100 x i32], [100 x i32]* %130, i64 0, i64 %132
  %134 = load i32, i32* %133, align 4
  %135 = call i32 (i8*, ...) @printf(i8* getelementptr inbounds ([4 x i8], [4 x i8]* @.str.2, i64 0, i64 0), i32 %134)
  br label %136

136:                                              ; preds = %127
  %137 = load i32, i32* %5, align 4
  %138 = add nsw i32 %137, -1
  store i32 %138, i32* %5, align 4
  br label %123

139:                                              ; preds = %123
  br label %140

140:                                              ; preds = %139
  %141 = load i32, i32* %7, align 4
  %142 = add nsw i32 %141, 1
  store i32 %142, i32* %7, align 4
  br label %34

143:                                              ; preds = %96, %44
  ret i32 0
}

declare dso_local i32 @__isoc99_scanf(i8*, ...) #1

declare dso_local i32 @printf(i8*, ...) #1


!llvm.module.flags = !{!0}
!llvm.ident = !{!1}

!0 = !{i32 1, !"wchar_size", i32 4}
!1 = !{!"clang version 10.0.0-4ubuntu1 "}
